target datalayout = "e-m:e-p270:32:32-p271:32:32-p272:64:64-i64:64-i128:128-f80:128-n8:16:32:64-S128"
target triple = "x86_64-pc-linux-gnu"

%struct.nstime_t = type { i64 }
%struct.atomic_p_t = type { ptr }
%struct.edata_s = type { i64, ptr, %union.anon.10, ptr, i64, %union.anon.11, %union.anon.14 }
%union.anon.10 = type { i64 }
%union.anon.11 = type { %union.anon.13 }
%union.anon.13 = type { %struct.edata_heap_link_t }
%struct.edata_heap_link_t = type { %struct.phn_link_s }
%struct.phn_link_s = type { ptr, ptr, ptr }
%union.anon.14 = type { %struct.slab_data_s }
%struct.slab_data_s = type { [8 x i64] }
%struct.prof_info_s = type { %struct.nstime_t, ptr, i64 }
%struct.e_prof_info_s = type { %struct.nstime_t, i64, %struct.atomic_p_t, %struct.atomic_p_t }

; Function Attrs: alwaysinline nounwind uwtable
define internal i32 @atomic_enum_to_builtin(i32 noundef %0) #2 {
  %2 = alloca i32, align 4
  %3 = alloca i32, align 4
  store i32 %0, ptr %3, align 4, !tbaa !21
  %4 = load i32, ptr %3, align 4, !tbaa !21
  switch i32 %4, label %10 [
    i32 0, label %5
    i32 1, label %6
    i32 2, label %7
    i32 3, label %8
    i32 4, label %9
  ]

5:                                                ; preds = %1
  store i32 0, ptr %2, align 4
  br label %12

6:                                                ; preds = %1
  store i32 2, ptr %2, align 4
  br label %12

7:                                                ; preds = %1
  store i32 3, ptr %2, align 4
  br label %12

8:                                                ; preds = %1
  store i32 4, ptr %2, align 4
  br label %12

9:                                                ; preds = %1
  store i32 5, ptr %2, align 4
  br label %12

10:                                               ; preds = %1
  br label %11

11:                                               ; preds = %10
  unreachable

12:                                               ; preds = %5, %6, %7, %8, %9
  %13 = load i32, ptr %2, align 4
  ret i32 %13
}

; Function Attrs: alwaysinline nounwind uwtable
define internal ptr @atomic_load_p(ptr noundef %0, i32 noundef %1) #2 {
  %3 = alloca ptr, align 8
  %4 = alloca i32, align 4
  %5 = alloca ptr, align 8
  store ptr %0, ptr %3, align 8, !tbaa !25
  store i32 %1, ptr %4, align 4, !tbaa !21
  call void @llvm.lifetime.start.p0(i64 8, ptr %5) #11
  %6 = load ptr, ptr %3, align 8, !tbaa !25
  %7 = getelementptr inbounds nuw %struct.atomic_p_t, ptr %6, i32 0, i32 0
  %8 = load i32, ptr %4, align 4, !tbaa !21
  %9 = call i32 @atomic_enum_to_builtin(i32 noundef %8)
  switch i32 %9, label %10 [
    i32 1, label %12
    i32 2, label %12
    i32 5, label %14
  ]

10:                                               ; preds = %2
  %11 = load atomic i64, ptr %7 monotonic, align 8
  store i64 %11, ptr %5, align 8
  br label %16

12:                                               ; preds = %2, %2
  %13 = load atomic i64, ptr %7 acquire, align 8
  store i64 %13, ptr %5, align 8
  br label %16

14:                                               ; preds = %2
  %15 = load atomic i64, ptr %7 seq_cst, align 8
  store i64 %15, ptr %5, align 8
  br label %16

16:                                               ; preds = %14, %12, %10
  %17 = load ptr, ptr %5, align 8, !tbaa !25
  call void @llvm.lifetime.end.p0(i64 8, ptr %5) #11
  ret ptr %17
}

; Function Attrs: inlinehint nounwind uwtable
define internal i64 @edata_prof_alloc_size_get(ptr noundef %0) #5 {
  %2 = alloca ptr, align 8
  store ptr %0, ptr %2, align 8, !tbaa !17
  %3 = load ptr, ptr %2, align 8, !tbaa !17
  %4 = getelementptr inbounds nuw %struct.edata_s, ptr %3, i32 0, i32 6
  %5 = getelementptr inbounds nuw %struct.e_prof_info_s, ptr %4, i32 0, i32 1
  %6 = load i64, ptr %5, align 8, !tbaa !26
  ret i64 %6
}

; Function Attrs: inlinehint nounwind uwtable
define internal ptr @edata_prof_alloc_time_get(ptr noundef %0) #5 {
  %2 = alloca ptr, align 8
  store ptr %0, ptr %2, align 8, !tbaa !17
  %3 = load ptr, ptr %2, align 8, !tbaa !17
  %4 = getelementptr inbounds nuw %struct.edata_s, ptr %3, i32 0, i32 6
  %5 = getelementptr inbounds nuw %struct.e_prof_info_s, ptr %4, i32 0, i32 0
  ret ptr %5
}

; Function Attrs: alwaysinline nounwind uwtable
define internal zeroext i1 @prof_tctx_is_valid(ptr noundef %0) #2 {
  %2 = alloca ptr, align 8
  store ptr %0, ptr %2, align 8, !tbaa !52
  %3 = load ptr, ptr %2, align 8, !tbaa !52
  %4 = icmp ne ptr %3, null
  br i1 %4, label %5, label %8

5:                                                ; preds = %1
  %6 = load ptr, ptr %2, align 8, !tbaa !52
  %7 = icmp ne ptr %6, inttoptr (i64 1 to ptr)
  br label %8

8:                                                ; preds = %5, %1
  %9 = phi i1 [ false, %1 ], [ %7, %5 ]
  ret i1 %9
}

; Function Attrs: inlinehint nounwind uwtable
define internal ptr @edata_prof_tctx_get(ptr noundef %0) #5 {
  %2 = alloca ptr, align 8
  store ptr %0, ptr %2, align 8, !tbaa !17
  %3 = load ptr, ptr %2, align 8, !tbaa !17
  %4 = getelementptr inbounds nuw %struct.edata_s, ptr %3, i32 0, i32 6
  %5 = getelementptr inbounds nuw %struct.e_prof_info_s, ptr %4, i32 0, i32 2
  %6 = call ptr @atomic_load_p(ptr noundef %5, i32 noundef 1)
  ret ptr %6
}

; Function Attrs: nounwind uwtable
define hidden void @je_large_prof_info_get(ptr noundef %0, ptr noundef %1, ptr noundef %2, i1 noundef zeroext %3) #0 {
  %5 = alloca ptr, align 8
  %6 = alloca ptr, align 8
  %7 = alloca ptr, align 8
  %8 = alloca i8, align 1
  %9 = alloca ptr, align 8
  store ptr %0, ptr %5, align 8, !tbaa !19
  store ptr %1, ptr %6, align 8, !tbaa !17
  store ptr %2, ptr %7, align 8, !tbaa !50
  %10 = zext i1 %3 to i8
  store i8 %10, ptr %8, align 1, !tbaa !13
  br label %11

11:                                               ; preds = %4
  br label %12

12:                                               ; preds = %11
  call void @llvm.lifetime.start.p0(i64 8, ptr %9) #11
  %13 = load ptr, ptr %6, align 8, !tbaa !17
  %14 = call ptr @edata_prof_tctx_get(ptr noundef %13)
  store ptr %14, ptr %9, align 8, !tbaa !52
  %15 = load ptr, ptr %9, align 8, !tbaa !52
  %16 = load ptr, ptr %7, align 8, !tbaa !50
  %17 = getelementptr inbounds nuw %struct.prof_info_s, ptr %16, i32 0, i32 1
  store ptr %15, ptr %17, align 8, !tbaa !54
  %18 = load ptr, ptr %9, align 8, !tbaa !52
  %19 = call zeroext i1 @prof_tctx_is_valid(ptr noundef %18)
  br i1 %19, label %20, label %35

20:                                               ; preds = %12
  %21 = load ptr, ptr %7, align 8, !tbaa !50
  %22 = getelementptr inbounds nuw %struct.prof_info_s, ptr %21, i32 0, i32 0
  %23 = load ptr, ptr %6, align 8, !tbaa !17
  %24 = call ptr @edata_prof_alloc_time_get(ptr noundef %23)
  call void @je_nstime_copy(ptr noundef %22, ptr noundef %24)
  %25 = load ptr, ptr %6, align 8, !tbaa !17
  %26 = call i64 @edata_prof_alloc_size_get(ptr noundef %25)
  %27 = load ptr, ptr %7, align 8, !tbaa !50
  %28 = getelementptr inbounds nuw %struct.prof_info_s, ptr %27, i32 0, i32 2
  store i64 %26, ptr %28, align 8, !tbaa !57
  %29 = load i8, ptr %8, align 1, !tbaa !13, !range !15, !noundef !16
  %30 = trunc i8 %29 to i1
  br i1 %30, label %31, label %34

31:                                               ; preds = %20
  %32 = load ptr, ptr %5, align 8, !tbaa !19
  %33 = load ptr, ptr %6, align 8, !tbaa !17
  call void @je_prof_recent_alloc_reset(ptr noundef %32, ptr noundef %33)
  br label %34

34:                                               ; preds = %31, %20
  br label %35

35:                                               ; preds = %34, %12
  call void @llvm.lifetime.end.p0(i64 8, ptr %9) #11
  ret void
}